; Function Attrs: mustprogress uwtable
define hidden noundef zeroext i1 @_ZNK3opt7context10is_numeralEP4exprR8rational(ptr noundef nonnull align 8 dereferenceable(792) %this, ptr noundef %e, ptr noundef nonnull align 8 dereferenceable(32) %n) local_unnamed_addr #3 align 2 {
entry:
  %is_int.i = alloca i8, align 1
  %sz = alloca i32, align 4
  %m_arith = getelementptr inbounds i8, ptr %this, i64 168
  call void @llvm.lifetime.start.p0(i64 1, ptr nonnull %is_int.i)
  %call.i = call noundef zeroext i1 @_ZNK10arith_util10is_numeralEPK4exprR8rationalRb(ptr noundef nonnull align 8 dereferenceable(16) %m_arith, ptr noundef %e, ptr noundef nonnull align 8 dereferenceable(32) %n, ptr noundef nonnull align 1 dereferenceable(1) %is_int.i)
  call void @llvm.lifetime.end.p0(i64 1, ptr nonnull %is_int.i)
  br i1 %call.i, label %lor.end, label %lor.rhs

lor.rhs:                                          ; preds = %entry
  %m_bv = getelementptr inbounds i8, ptr %this, i64 184
  %call2 = call noundef zeroext i1 @_ZNK14bv_recognizers10is_numeralEPK4exprR8rationalRj(ptr noundef nonnull align 4 dereferenceable(4) %m_bv, ptr noundef %e, ptr noundef nonnull align 8 dereferenceable(32) %n, ptr noundef nonnull align 4 dereferenceable(4) %sz)
  br label %lor.end

lor.end:                                          ; preds = %lor.rhs, %entry
  %0 = phi i1 [ true, %entry ], [ %call2, %lor.rhs ]
  ret i1 %0
}